; ModuleID = '19/2467.c'
source_filename = "19/2467.c"
target datalayout = "e-m:e-p270:32:32-p271:32:32-p272:64:64-i64:64-f80:128-n8:16:32:64-S128"
target triple = "x86_64-pc-linux-gnu"

@.str = private unnamed_addr constant [3 x i8] c"%s\00", align 1
@.str.1 = private unnamed_addr constant [4 x i8] c" %s\00", align 1

; Function Attrs: noinline nounwind uwtable
define dso_local i32 @main() #0 {
  %1 = alloca i32, align 4
  %2 = alloca [100 x i8], align 16
  %3 = alloca [100 x i8], align 16
  %4 = alloca [100 x i8], align 16
  %5 = alloca [100 x i8], align 16
  %6 = alloca [100 x [100 x i8]], align 16
  %7 = alloca i32, align 4
  %8 = alloca i32, align 4
  %9 = alloca i32, align 4
  %10 = alloca i32, align 4
  %11 = alloca i32, align 4
  %12 = alloca i32, align 4
  store i32 0, i32* %1, align 4
  %13 = bitcast [100 x i8]* %3 to i8*
  call void @llvm.memset.p0i8.i64(i8* align 16 %13, i8 0, i64 100, i1 false)
  %14 = bitcast i8* %13 to <{ i8, [99 x i8] }>*
  %15 = getelementptr inbounds <{ i8, [99 x i8] }>, <{ i8, [99 x i8] }>* %14, i32 0, i32 0
  store i8 48, i8* %15, align 16
  %16 = bitcast [100 x [100 x i8]]* %6 to i8*
  call void @llvm.memset.p0i8.i64(i8* align 16 %16, i8 0, i64 10000, i1 false)
  %17 = bitcast i8* %16 to <{ <{ i8, [99 x i8] }>, <{ i8, [99 x i8] }>, [98 x <{ i8, [99 x i8] }>] }>*
  %18 = getelementptr inbounds <{ <{ i8, [99 x i8] }>, <{ i8, [99 x i8] }>, [98 x <{ i8, [99 x i8] }>] }>, <{ <{ i8, [99 x i8] }>, <{ i8, [99 x i8] }>, [98 x <{ i8, [99 x i8] }>] }>* %17, i32 0, i32 0
  %19 = getelementptr inbounds <{ i8, [99 x i8] }>, <{ i8, [99 x i8] }>* %18, i32 0, i32 0
  store i8 48, i8* %19, align 16
  %20 = getelementptr inbounds <{ <{ i8, [99 x i8] }>, <{ i8, [99 x i8] }>, [98 x <{ i8, [99 x i8] }>] }>, <{ <{ i8, [99 x i8] }>, <{ i8, [99 x i8] }>, [98 x <{ i8, [99 x i8] }>] }>* %17, i32 0, i32 1
  %21 = getelementptr inbounds <{ i8, [99 x i8] }>, <{ i8, [99 x i8] }>* %20, i32 0, i32 0
  store i8 48, i8* %21, align 4
  store i32 0, i32* %11, align 4
  store i32 1, i32* %12, align 4
  %22 = getelementptr inbounds [100 x i8], [100 x i8]* %2, i64 0, i64 0
  %23 = call i32 (i8*, ...) bitcast (i32 (...)* @gets to i32 (i8*, ...)*)(i8* %22)
  %24 = getelementptr inbounds [100 x i8], [100 x i8]* %4, i64 0, i64 0
  %25 = call i32 (i8*, ...) bitcast (i32 (...)* @gets to i32 (i8*, ...)*)(i8* %24)
  %26 = getelementptr inbounds [100 x i8], [100 x i8]* %5, i64 0, i64 0
  %27 = call i32 (i8*, ...) bitcast (i32 (...)* @gets to i32 (i8*, ...)*)(i8* %26)
  %28 = getelementptr inbounds [100 x i8], [100 x i8]* %2, i64 0, i64 0
  %29 = call i64 @strlen(i8* %28) #5
  %30 = trunc i64 %29 to i32
  store i32 %30, i32* %9, align 4
  store i32 0, i32* %7, align 4
  br label %31

31:                                               ; preds = %46, %0
  %32 = load i32, i32* %7, align 4
  %33 = load i32, i32* %9, align 4
  %34 = icmp slt i32 %32, %33
  br i1 %34, label %35, label %49

35:                                               ; preds = %31
  %36 = load i32, i32* %7, align 4
  %37 = sext i32 %36 to i64
  %38 = getelementptr inbounds [100 x i8], [100 x i8]* %2, i64 0, i64 %37
  %39 = load i8, i8* %38, align 1
  %40 = sext i8 %39 to i32
  %41 = icmp eq i32 %40, 32
  br i1 %41, label %42, label %45

42:                                               ; preds = %35
  %43 = load i32, i32* %12, align 4
  %44 = add nsw i32 %43, 1
  store i32 %44, i32* %12, align 4
  br label %45

45:                                               ; preds = %42, %35
  br label %46

46:                                               ; preds = %45
  %47 = load i32, i32* %7, align 4
  %48 = add nsw i32 %47, 1
  store i32 %48, i32* %7, align 4
  br label %31

49:                                               ; preds = %31
  store i32 0, i32* %7, align 4
  br label %50

50:                                               ; preds = %88, %49
  %51 = load i32, i32* %7, align 4
  %52 = load i32, i32* %12, align 4
  %53 = icmp slt i32 %51, %52
  br i1 %53, label %54, label %91

54:                                               ; preds = %50
  store i32 0, i32* %10, align 4
  %55 = load i32, i32* %11, align 4
  store i32 %55, i32* %8, align 4
  br label %56

56:                                               ; preds = %84, %54
  %57 = load i32, i32* %8, align 4
  %58 = load i32, i32* %9, align 4
  %59 = icmp slt i32 %57, %58
  br i1 %59, label %60, label %87

60:                                               ; preds = %56
  %61 = load i32, i32* %8, align 4
  %62 = sext i32 %61 to i64
  %63 = getelementptr inbounds [100 x i8], [100 x i8]* %2, i64 0, i64 %62
  %64 = load i8, i8* %63, align 1
  %65 = sext i8 %64 to i32
  %66 = icmp ne i32 %65, 32
  br i1 %66, label %67, label %80

67:                                               ; preds = %60
  %68 = load i32, i32* %8, align 4
  %69 = sext i32 %68 to i64
  %70 = getelementptr inbounds [100 x i8], [100 x i8]* %2, i64 0, i64 %69
  %71 = load i8, i8* %70, align 1
  %72 = load i32, i32* %7, align 4
  %73 = sext i32 %72 to i64
  %74 = getelementptr inbounds [100 x [100 x i8]], [100 x [100 x i8]]* %6, i64 0, i64 %73
  %75 = load i32, i32* %10, align 4
  %76 = sext i32 %75 to i64
  %77 = getelementptr inbounds [100 x i8], [100 x i8]* %74, i64 0, i64 %76
  store i8 %71, i8* %77, align 1
  %78 = load i32, i32* %10, align 4
  %79 = add nsw i32 %78, 1
  store i32 %79, i32* %10, align 4
  br label %83

80:                                               ; preds = %60
  %81 = load i32, i32* %8, align 4
  %82 = add nsw i32 %81, 1
  store i32 %82, i32* %11, align 4
  br label %87

83:                                               ; preds = %67
  br label %84

84:                                               ; preds = %83
  %85 = load i32, i32* %8, align 4
  %86 = add nsw i32 %85, 1
  store i32 %86, i32* %8, align 4
  br label %56

87:                                               ; preds = %80, %56
  br label %88

88:                                               ; preds = %87
  %89 = load i32, i32* %7, align 4
  %90 = add nsw i32 %89, 1
  store i32 %90, i32* %7, align 4
  br label %50

91:                                               ; preds = %50
  store i32 0, i32* %7, align 4
  br label %92

92:                                               ; preds = %112, %91
  %93 = load i32, i32* %7, align 4
  %94 = load i32, i32* %12, align 4
  %95 = icmp slt i32 %93, %94
  br i1 %95, label %96, label %115

96:                                               ; preds = %92
  %97 = load i32, i32* %7, align 4
  %98 = sext i32 %97 to i64
  %99 = getelementptr inbounds [100 x [100 x i8]], [100 x [100 x i8]]* %6, i64 0, i64 %98
  %100 = getelementptr inbounds [100 x i8], [100 x i8]* %99, i64 0, i64 0
  %101 = getelementptr inbounds [100 x i8], [100 x i8]* %4, i64 0, i64 0
  %102 = call i32 @strcmp(i8* %100, i8* %101) #5
  %103 = icmp eq i32 %102, 0
  br i1 %103, label %104, label %111

104:                                              ; preds = %96
  %105 = load i32, i32* %7, align 4
  %106 = sext i32 %105 to i64
  %107 = getelementptr inbounds [100 x [100 x i8]], [100 x [100 x i8]]* %6, i64 0, i64 %106
  %108 = getelementptr inbounds [100 x i8], [100 x i8]* %107, i64 0, i64 0
  %109 = getelementptr inbounds [100 x i8], [100 x i8]* %5, i64 0, i64 0
  %110 = call i8* @strcpy(i8* %108, i8* %109) #6
  br label %111

111:                                              ; preds = %104, %96
  br label %112

112:                                              ; preds = %111
  %113 = load i32, i32* %7, align 4
  %114 = add nsw i32 %113, 1
  store i32 %114, i32* %7, align 4
  br label %92

115:                                              ; preds = %92
  %116 = getelementptr inbounds [100 x [100 x i8]], [100 x [100 x i8]]* %6, i64 0, i64 0
  %117 = getelementptr inbounds [100 x i8], [100 x i8]* %116, i64 0, i64 0
  %118 = call i32 (i8*, ...) @printf(i8* getelementptr inbounds ([3 x i8], [3 x i8]* @.str, i64 0, i64 0), i8* %117)
  store i32 1, i32* %7, align 4
  br label %119

119:                                              ; preds = %129, %115
  %120 = load i32, i32* %7, align 4
  %121 = load i32, i32* %12, align 4
  %122 = icmp slt i32 %120, %121
  br i1 %122, label %123, label %132

123:                                              ; preds = %119
  %124 = load i32, i32* %7, align 4
  %125 = sext i32 %124 to i64
  %126 = getelementptr inbounds [100 x [100 x i8]], [100 x [100 x i8]]* %6, i64 0, i64 %125
  %127 = getelementptr inbounds [100 x i8], [100 x i8]* %126, i64 0, i64 0
  %128 = call i32 (i8*, ...) @printf(i8* getelementptr inbounds ([4 x i8], [4 x i8]* @.str.1, i64 0, i64 0), i8* %127)
  br label %129

129:                                              ; preds = %123
  %130 = load i32, i32* %7, align 4
  %131 = add nsw i32 %130, 1
  store i32 %131, i32* %7, align 4
  br label %119

132:                                              ; preds = %119
  ret i32 0
}

; Function Attrs: argmemonly nounwind willreturn
declare void @llvm.memset.p0i8.i64(i8* nocapture writeonly, i8, i64, i1 immarg) #1

declare dso_local i32 @gets(...) #2

; Function Attrs: nounwind readonly
declare dso_local i64 @strlen(i8*) #3

; Function Attrs: nounwind readonly
declare dso_local i32 @strcmp(i8*, i8*) #3

; Function Attrs: nounwind
declare dso_local i8* @strcpy(i8*, i8*) #4

declare dso_local i32 @printf(i8*, ...) #2


!llvm.module.flags = !{!0}
!llvm.ident = !{!1}

!0 = !{i32 1, !"wchar_size", i32 4}
!1 = !{!"clang version 10.0.0-4ubuntu1 "}
